target datalayout = "e-m:e-p270:32:32-p271:32:32-p272:64:64-i64:64-i128:128-f80:128-n8:16:32:64-S128"
target triple = "x86_64-pc-linux-gnu"

%class.symbol = type { ptr }
%class.sort_size = type { i32, i64 }
%class.sort_info = type { %class.decl_info.base, %class.sort_size }
%class.decl_info.base = type <{ i32, i32, %class.vector.39, i8 }>
%class.vector.39 = type { ptr }
%class.decl = type { %class.ast, %class.symbol, ptr }
%class.ast = type { i32, i32, i32, i32 }

; Function Attrs: mustprogress nounwind uwtable
define linkonce_odr hidden noundef i64 @_ZNK9sort_size4sizeEv(ptr noundef nonnull align 8 dereferenceable(16) %0) #9 comdat align 2 {
  %2 = alloca ptr, align 8
  store ptr %0, ptr %2, align 8, !tbaa !34
  %3 = load ptr, ptr %2, align 8
  %4 = getelementptr inbounds nuw %class.sort_size, ptr %3, i32 0, i32 1
  %5 = load i64, ptr %4, align 8, !tbaa !49
  ret i64 %5
}

; Function Attrs: mustprogress nounwind uwtable
define linkonce_odr hidden noundef zeroext i1 @_ZNK9sort_size9is_finiteEv(ptr noundef nonnull align 8 dereferenceable(16) %0) #9 comdat align 2 {
  %2 = alloca ptr, align 8
  store ptr %0, ptr %2, align 8, !tbaa !34
  %3 = load ptr, ptr %2, align 8
  %4 = getelementptr inbounds nuw %class.sort_size, ptr %3, i32 0, i32 0
  %5 = load i32, ptr %4, align 8, !tbaa !47
  %6 = icmp eq i32 %5, 0
  ret i1 %6
}

; Function Attrs: mustprogress nounwind uwtable
define linkonce_odr hidden noundef nonnull align 8 dereferenceable(16) ptr @_ZNK9sort_info16get_num_elementsEv(ptr noundef nonnull align 8 dereferenceable(40) %0) #9 comdat align 2 {
  %2 = alloca ptr, align 8
  store ptr %0, ptr %2, align 8, !tbaa !52
  %3 = load ptr, ptr %2, align 8
  %4 = getelementptr inbounds nuw %class.sort_info, ptr %3, i32 0, i32 1
  ret ptr %4
}

; Function Attrs: mustprogress nounwind uwtable
define linkonce_odr hidden noundef ptr @_ZNK4sort8get_infoEv(ptr noundef nonnull align 8 dereferenceable(32) %0) #9 comdat align 2 {
  %2 = alloca ptr, align 8
  store ptr %0, ptr %2, align 8, !tbaa !32
  %3 = load ptr, ptr %2, align 8
  %4 = getelementptr inbounds nuw %class.decl, ptr %3, i32 0, i32 2
  %5 = load ptr, ptr %4, align 8, !tbaa !65
  ret ptr %5
}

; Function Attrs: mustprogress uwtable
define hidden noundef zeroext i1 @_ZNK7datalog12dl_decl_util12try_get_sizeEPK4sortRm(ptr noundef nonnull align 8 dereferenceable(28) %0, ptr noundef %1, ptr noundef nonnull align 8 dereferenceable(8) %2) #4 align 2 {
  %4 = alloca i1, align 1
  %5 = alloca ptr, align 8
  %6 = alloca ptr, align 8
  %7 = alloca ptr, align 8
  %8 = alloca %class.sort_size, align 8
  %9 = alloca i32, align 4
  store ptr %0, ptr %5, align 8, !tbaa !183
  store ptr %1, ptr %6, align 8, !tbaa !32
  store ptr %2, ptr %7, align 8, !tbaa !200
  call void @llvm.lifetime.start.p0(i64 16, ptr %8) #3
  %10 = load ptr, ptr %6, align 8, !tbaa !32
  %11 = call noundef ptr @_ZNK4sort8get_infoEv(ptr noundef nonnull align 8 dereferenceable(32) %10)
  %12 = call noundef nonnull align 8 dereferenceable(16) ptr @_ZNK9sort_info16get_num_elementsEv(ptr noundef nonnull align 8 dereferenceable(40) %11)
  call void @llvm.memcpy.p0.p0.i64(ptr align 8 %8, ptr align 8 %12, i64 16, i1 false), !tbaa.struct !38
  %13 = call noundef zeroext i1 @_ZNK9sort_size9is_finiteEv(ptr noundef nonnull align 8 dereferenceable(16) %8)
  br i1 %13, label %14, label %17

14:                                               ; preds = %3
  %15 = call noundef i64 @_ZNK9sort_size4sizeEv(ptr noundef nonnull align 8 dereferenceable(16) %8)
  %16 = load ptr, ptr %7, align 8, !tbaa !200
  store i64 %15, ptr %16, align 8, !tbaa !41
  store i1 true, ptr %4, align 1
  store i32 1, ptr %9, align 4
  br label %18

17:                                               ; preds = %3
  store i1 false, ptr %4, align 1
  store i32 1, ptr %9, align 4
  br label %18

18:                                               ; preds = %17, %14
  call void @llvm.lifetime.end.p0(i64 16, ptr %8) #3
  %19 = load i1, ptr %4, align 1
  ret i1 %19
}