; Function Attrs: mustprogress nofree norecurse nosync nounwind willreturn memory(read, argmem: readwrite, inaccessiblemem: none) uwtable
define hidden noundef zeroext i1 @_ZNK7datalog12dl_decl_util12try_get_sizeEPK4sortRm(ptr noundef nonnull readnone align 8 captures(none) dereferenceable(28) %0, ptr noundef readonly captures(none) %1, ptr noundef nonnull writeonly align 8 captures(none) dereferenceable(8) %2) local_unnamed_addr #12 align 2 {
  %4 = getelementptr inbounds nuw i8, ptr %1, i64 24
  %5 = load ptr, ptr %4, align 8, !tbaa !30
  %6 = getelementptr inbounds nuw i8, ptr %5, i64 24
  %.sroa.0.0.copyload = load i32, ptr %6, align 8, !tbaa !41
  %7 = icmp eq i32 %.sroa.0.0.copyload, 0
  br i1 %7, label %8, label %9

8:                                                ; preds = %3
  %.sroa.43.0..sroa_idx = getelementptr inbounds nuw i8, ptr %5, i64 32
  %.sroa.43.0.copyload = load i64, ptr %.sroa.43.0..sroa_idx, align 8, !tbaa !42
  store i64 %.sroa.43.0.copyload, ptr %2, align 8, !tbaa !42
  br label %9

9:                                                ; preds = %3, %8
  ret i1 %7
}